; Function Attrs: mustprogress nofree norecurse nosync nounwind ssp willreturn memory(argmem: read) uwtable
define noundef double @_ZNK6open3d9pipelines12registration6GMLoss6WeightEd(ptr noundef nonnull readonly align 8 captures(none) dereferenceable(16) %0, double noundef %1) unnamed_addr #1 align 2 {
  %3 = getelementptr inbounds nuw i8, ptr %0, i64 8
  %4 = load double, ptr %3, align 8, !tbaa !12
  %5 = fmul double %1, %1
  %6 = fadd double %5, %4
  %7 = fmul double %6, %6
  %8 = fdiv double %4, %7
  ret double %8
}